target datalayout = "e-m:e-p270:32:32-p271:32:32-p272:64:64-i64:64-i128:128-f80:128-n8:16:32:64-S128"
target triple = "x86_64-pc-linux-gnu"

%struct.obj_info = type { ptr, ptr, i64, ptr, i64, i64, %struct.dwarf_section, %struct.dwarf_section, %struct.dwarf_section, %struct.dwarf_section, %struct.dwarf_section, %struct.dwarf_section, %struct.dwarf_section, %struct.dwarf_section, %struct.dwarf_section, ptr }
%struct.dwarf_section = type { ptr, i64, i64 }

@binary_filename = internal global [4097 x i8] zeroinitializer, align 16
@follow_debuglink_build_id.global_debug_dir = internal constant [26 x i8] c"/usr/lib/debug/.build-id/\00", align 16
@follow_debuglink_build_id.tbl = internal constant [17 x i8] c"0123456789abcdef\00", align 16
@.str.25 = private unnamed_addr constant [7 x i8] c".debug\00", align 1

; Function Attrs: nounwind sspstrong uwtable
define internal void @append_obj(ptr noundef %0) #0 {
  %2 = alloca ptr, align 8
  %3 = alloca ptr, align 8
  store ptr %0, ptr %2, align 8, !tbaa !54
  call void @llvm.lifetime.start.p0(i64 8, ptr %3) #12
  %4 = call noalias ptr @calloc(i64 noundef 1, i64 noundef 272) #13
  store ptr %4, ptr %3, align 8, !tbaa !17
  %5 = load ptr, ptr %2, align 8, !tbaa !54
  %6 = load ptr, ptr %5, align 8, !tbaa !17
  %7 = icmp ne ptr %6, null
  br i1 %7, label %8, label %13

8:                                                ; preds = %1
  %9 = load ptr, ptr %3, align 8, !tbaa !17
  %10 = load ptr, ptr %2, align 8, !tbaa !54
  %11 = load ptr, ptr %10, align 8, !tbaa !17
  %12 = getelementptr inbounds nuw %struct.obj_info, ptr %11, i32 0, i32 15
  store ptr %9, ptr %12, align 8, !tbaa !48
  br label %13

13:                                               ; preds = %8, %1
  %14 = load ptr, ptr %3, align 8, !tbaa !17
  %15 = load ptr, ptr %2, align 8, !tbaa !54
  store ptr %14, ptr %15, align 8, !tbaa !17
  call void @llvm.lifetime.end.p0(i64 8, ptr %3) #12
  ret void
}

; Function Attrs: alwaysinline nounwind
define internal ptr @strcpy.inline(ptr noalias nonnull %0, ptr noalias nonnull %1) #3 {
  %3 = alloca ptr, align 8
  %4 = alloca ptr, align 8
  store ptr %0, ptr %3, align 8, !tbaa !19
  store ptr %1, ptr %4, align 8, !tbaa !19
  %5 = load ptr, ptr %3, align 8, !tbaa !19
  %6 = load ptr, ptr %4, align 8, !tbaa !19
  %7 = load ptr, ptr %3, align 8, !tbaa !19
  %8 = call i64 @llvm.objectsize.i64.p0(ptr %7, i1 false, i1 true, i1 false)
  %9 = call ptr @__strcpy_chk(ptr noundef %5, ptr noundef %6, i64 noundef %8) #12
  ret ptr %9
}

; Function Attrs: alwaysinline nounwind
define internal ptr @memcpy.inline(ptr noalias nonnull %0, ptr noalias nonnull %1, i64 %2) #3 {
  %4 = alloca ptr, align 8
  %5 = alloca ptr, align 8
  %6 = alloca i64, align 8
  store ptr %0, ptr %4, align 8, !tbaa !11
  store ptr %1, ptr %5, align 8, !tbaa !11
  store i64 %2, ptr %6, align 8, !tbaa !21
  %7 = load ptr, ptr %4, align 8, !tbaa !11
  %8 = load ptr, ptr %5, align 8, !tbaa !11
  %9 = load i64, ptr %6, align 8, !tbaa !21
  %10 = load ptr, ptr %4, align 8, !tbaa !11
  %11 = call i64 @llvm.objectsize.i64.p0(ptr %10, i1 false, i1 true, i1 false)
  %12 = call ptr @__memcpy_chk(ptr noundef %7, ptr noundef %8, i64 noundef %9, i64 noundef %11) #12
  ret ptr %12
}

; Function Attrs: nounwind sspstrong uwtable
define internal void @follow_debuglink_build_id(ptr noundef %0, i64 noundef %1, i32 noundef %2, ptr noundef %3, ptr noundef %4, ptr noundef %5, i32 noundef %6, ptr noundef %7) #0 {
  %9 = alloca ptr, align 8
  %10 = alloca i64, align 8
  %11 = alloca i32, align 4
  %12 = alloca ptr, align 8
  %13 = alloca ptr, align 8
  %14 = alloca ptr, align 8
  %15 = alloca i32, align 4
  %16 = alloca ptr, align 8
  %17 = alloca i64, align 8
  %18 = alloca ptr, align 8
  %19 = alloca ptr, align 8
  %20 = alloca ptr, align 8
  %21 = alloca i64, align 8
  %22 = alloca i32, align 4
  %23 = alloca i8, align 1
  store ptr %0, ptr %9, align 8, !tbaa !19
  store i64 %1, ptr %10, align 8, !tbaa !21
  store i32 %2, ptr %11, align 4, !tbaa !7
  store ptr %3, ptr %12, align 8, !tbaa !11
  store ptr %4, ptr %13, align 8, !tbaa !54
  store ptr %5, ptr %14, align 8, !tbaa !15
  store i32 %6, ptr %15, align 4, !tbaa !7
  store ptr %7, ptr %16, align 8, !tbaa !13
  call void @llvm.lifetime.start.p0(i64 8, ptr %17) #12
  store i64 25, ptr %17, align 8, !tbaa !21
  call void @llvm.lifetime.start.p0(i64 8, ptr %18) #12
  call void @llvm.lifetime.start.p0(i64 8, ptr %19) #12
  %24 = load ptr, ptr %13, align 8, !tbaa !54
  %25 = load ptr, ptr %24, align 8, !tbaa !17
  store ptr %25, ptr %19, align 8, !tbaa !17
  call void @llvm.lifetime.start.p0(i64 8, ptr %20) #12
  call void @llvm.lifetime.start.p0(i64 8, ptr %21) #12
  %26 = load i64, ptr %10, align 8, !tbaa !21
  %27 = mul i64 %26, 2
  %28 = add i64 26, %27
  %29 = add i64 %28, 6
  %30 = icmp ult i64 4096, %29
  br i1 %30, label %31, label %32

31:                                               ; preds = %8
  store i32 1, ptr %22, align 4
  br label %91

32:                                               ; preds = %8
  %33 = call ptr @memcpy.inline(ptr noundef @binary_filename, ptr noundef @follow_debuglink_build_id.global_debug_dir, i64 noundef 25) #12
  store ptr getelementptr (i8, ptr @binary_filename, i64 25), ptr %18, align 8, !tbaa !19
  store i64 0, ptr %21, align 8, !tbaa !21
  br label %34

34:                                               ; preds = %65, %32
  %35 = load i64, ptr %21, align 8, !tbaa !21
  %36 = load i64, ptr %10, align 8, !tbaa !21
  %37 = icmp ult i64 %35, %36
  br i1 %37, label %38, label %68

38:                                               ; preds = %34
  call void @llvm.lifetime.start.p0(i64 1, ptr %23) #12
  %39 = load ptr, ptr %9, align 8, !tbaa !19
  %40 = load i64, ptr %21, align 8, !tbaa !21
  %41 = getelementptr i8, ptr %39, i64 %40
  %42 = load i8, ptr %41, align 1, !tbaa !53
  store i8 %42, ptr %23, align 1, !tbaa !53
  %43 = load i8, ptr %23, align 1, !tbaa !53
  %44 = zext i8 %43 to i32
  %45 = sdiv i32 %44, 16
  %46 = sext i32 %45 to i64
  %47 = getelementptr [17 x i8], ptr @follow_debuglink_build_id.tbl, i64 0, i64 %46
  %48 = load i8, ptr %47, align 1, !tbaa !53
  %49 = load ptr, ptr %18, align 8, !tbaa !19
  %50 = getelementptr i8, ptr %49, i32 1
  store ptr %50, ptr %18, align 8, !tbaa !19
  store i8 %48, ptr %49, align 1, !tbaa !53
  %51 = load i8, ptr %23, align 1, !tbaa !53
  %52 = zext i8 %51 to i32
  %53 = srem i32 %52, 16
  %54 = sext i32 %53 to i64
  %55 = getelementptr [17 x i8], ptr @follow_debuglink_build_id.tbl, i64 0, i64 %54
  %56 = load i8, ptr %55, align 1, !tbaa !53
  %57 = load ptr, ptr %18, align 8, !tbaa !19
  %58 = getelementptr i8, ptr %57, i32 1
  store ptr %58, ptr %18, align 8, !tbaa !19
  store i8 %56, ptr %57, align 1, !tbaa !53
  %59 = load i64, ptr %21, align 8, !tbaa !21
  %60 = icmp eq i64 %59, 0
  br i1 %60, label %61, label %64

61:                                               ; preds = %38
  %62 = load ptr, ptr %18, align 8, !tbaa !19
  %63 = getelementptr i8, ptr %62, i32 1
  store ptr %63, ptr %18, align 8, !tbaa !19
  store i8 47, ptr %62, align 1, !tbaa !53
  br label %64

64:                                               ; preds = %61, %38
  call void @llvm.lifetime.end.p0(i64 1, ptr %23) #12
  br label %65

65:                                               ; preds = %64
  %66 = load i64, ptr %21, align 8, !tbaa !21
  %67 = add i64 %66, 1
  store i64 %67, ptr %21, align 8, !tbaa !21
  br label %34, !llvm.loop !128

68:                                               ; preds = %34
  %69 = load ptr, ptr %18, align 8, !tbaa !19
  %70 = call ptr @strcpy.inline(ptr noundef %69, ptr noundef @.str.25) #12
  %71 = load ptr, ptr %13, align 8, !tbaa !54
  call void @append_obj(ptr noundef %71)
  %72 = load ptr, ptr %13, align 8, !tbaa !54
  %73 = load ptr, ptr %72, align 8, !tbaa !17
  store ptr %73, ptr %20, align 8, !tbaa !17
  %74 = load ptr, ptr %19, align 8, !tbaa !17
  %75 = getelementptr inbounds nuw %struct.obj_info, ptr %74, i32 0, i32 4
  %76 = load i64, ptr %75, align 8, !tbaa !36
  %77 = load ptr, ptr %20, align 8, !tbaa !17
  %78 = getelementptr inbounds nuw %struct.obj_info, ptr %77, i32 0, i32 4
  store i64 %76, ptr %78, align 8, !tbaa !36
  %79 = load ptr, ptr %19, align 8, !tbaa !17
  %80 = getelementptr inbounds nuw %struct.obj_info, ptr %79, i32 0, i32 0
  %81 = load ptr, ptr %80, align 8, !tbaa !23
  %82 = load ptr, ptr %20, align 8, !tbaa !17
  %83 = getelementptr inbounds nuw %struct.obj_info, ptr %82, i32 0, i32 0
  store ptr %81, ptr %83, align 8, !tbaa !23
  %84 = load i32, ptr %11, align 4, !tbaa !7
  %85 = load ptr, ptr %12, align 8, !tbaa !11
  %86 = load ptr, ptr %13, align 8, !tbaa !54
  %87 = load ptr, ptr %14, align 8, !tbaa !15
  %88 = load i32, ptr %15, align 4, !tbaa !7
  %89 = load ptr, ptr %16, align 8, !tbaa !13
  %90 = call i64 @fill_lines(i32 noundef %84, ptr noundef %85, i32 noundef 0, ptr noundef %86, ptr noundef %87, i32 noundef %88, ptr noundef %89)
  store i32 0, ptr %22, align 4
  br label %91

91:                                               ; preds = %68, %31
  call void @llvm.lifetime.end.p0(i64 8, ptr %21) #12
  call void @llvm.lifetime.end.p0(i64 8, ptr %20) #12
  call void @llvm.lifetime.end.p0(i64 8, ptr %19) #12
  call void @llvm.lifetime.end.p0(i64 8, ptr %18) #12
  call void @llvm.lifetime.end.p0(i64 8, ptr %17) #12
  %92 = load i32, ptr %22, align 4
  switch i32 %92, label %94 [
    i32 0, label %93
    i32 1, label %93
  ]

93:                                               ; preds = %91, %91
  ret void

94:                                               ; preds = %91
  unreachable
}