; Function Attrs: nounwind sspstrong uwtable
define internal fastcc void @follow_debuglink_build_id(ptr noundef readonly captures(none) %0, i64 noundef range(i64 0, 4294967296) %1, i32 noundef %2, ptr noundef readonly captures(none) %3, ptr noundef nonnull captures(none) %4, ptr noundef captures(none) %5, i32 noundef %6, ptr noundef %7) unnamed_addr #0 {
  %9 = load ptr, ptr %4, align 8, !tbaa !7
  %10 = icmp samesign ugt i64 %1, 2032
  br i1 %10, label %39, label %11

11:                                               ; preds = %8
  tail call void @llvm.memcpy.p0.p0.i64(ptr noundef nonnull align 16 dereferenceable(25) @binary_filename, ptr noundef nonnull align 16 dereferenceable(25) @follow_debuglink_build_id.global_debug_dir, i64 noundef 25, i1 noundef false) #16
  %.not = icmp eq i64 %1, 0
  br i1 %.not, label %._crit_edge, label %.lr.ph

.lr.ph:                                           ; preds = %11, %28
  %.027 = phi ptr [ %.1, %28 ], [ getelementptr inbounds nuw (i8, ptr @binary_filename, i64 25), %11 ]
  %.02526 = phi i64 [ %29, %28 ], [ 0, %11 ]
  %12 = getelementptr i8, ptr %0, i64 %.02526
  %13 = load i8, ptr %12, align 1, !tbaa !12
  %14 = zext i8 %13 to i32
  %15 = lshr i32 %14, 4
  %16 = zext nneg i32 %15 to i64
  %17 = getelementptr [17 x i8], ptr @follow_debuglink_build_id.tbl, i64 0, i64 %16
  %18 = load i8, ptr %17, align 1, !tbaa !12
  %19 = getelementptr i8, ptr %.027, i64 1
  store i8 %18, ptr %.027, align 1, !tbaa !12
  %20 = and i32 %14, 15
  %21 = zext nneg i32 %20 to i64
  %22 = getelementptr [17 x i8], ptr @follow_debuglink_build_id.tbl, i64 0, i64 %21
  %23 = load i8, ptr %22, align 1, !tbaa !12
  %24 = getelementptr i8, ptr %.027, i64 2
  store i8 %23, ptr %19, align 1, !tbaa !12
  %25 = icmp eq i64 %.02526, 0
  br i1 %25, label %26, label %28

26:                                               ; preds = %.lr.ph
  %27 = getelementptr i8, ptr %.027, i64 3
  store i8 47, ptr %24, align 1, !tbaa !12
  br label %28

28:                                               ; preds = %26, %.lr.ph
  %.1 = phi ptr [ %27, %26 ], [ %24, %.lr.ph ]
  %29 = add nuw nsw i64 %.02526, 1
  %exitcond.not = icmp eq i64 %29, %1
  br i1 %exitcond.not, label %._crit_edge, label %.lr.ph, !llvm.loop !132

._crit_edge:                                      ; preds = %28, %11
  %.0.lcssa = phi ptr [ getelementptr inbounds nuw (i8, ptr @binary_filename, i64 25), %11 ], [ %.1, %28 ]
  tail call void @llvm.memcpy.p0.p0.i64(ptr noundef nonnull align 1 dereferenceable(7) %.0.lcssa, ptr noundef nonnull align 1 dereferenceable(7) @.str.25, i64 7, i1 false)
  %30 = tail call noalias dereferenceable_or_null(272) ptr @calloc(i64 noundef 1, i64 noundef 272) #15
  %31 = load ptr, ptr %4, align 8, !tbaa !7
  %.not.i = icmp eq ptr %31, null
  br i1 %.not.i, label %append_obj.exit, label %32

32:                                               ; preds = %._crit_edge
  %33 = getelementptr inbounds nuw i8, ptr %31, i64 264
  store ptr %30, ptr %33, align 8, !tbaa !31
  br label %append_obj.exit

append_obj.exit:                                  ; preds = %._crit_edge, %32
  store ptr %30, ptr %4, align 8, !tbaa !7
  %34 = getelementptr inbounds nuw i8, ptr %9, i64 32
  %35 = load i64, ptr %34, align 8, !tbaa !32
  %36 = getelementptr inbounds nuw i8, ptr %30, i64 32
  store i64 %35, ptr %36, align 8, !tbaa !32
  %37 = load ptr, ptr %9, align 8, !tbaa !13
  store ptr %37, ptr %30, align 8, !tbaa !13
  %38 = tail call fastcc i64 @fill_lines(i32 noundef %2, ptr noundef %3, i32 noundef 0, ptr noundef %4, ptr noundef %5, i32 noundef %6, ptr noundef %7)
  br label %39

39:                                               ; preds = %8, %append_obj.exit
  ret void
}